; Function Attrs: mustprogress uwtable
define void @_ZN5arrow17Decimal128Builder12UnsafeAppendENS_10Decimal128E(ptr noundef nonnull align 8 dereferenceable(224) %this, i64 %value.coerce0, i64 %value.coerce1) local_unnamed_addr #0 align 2 {
entry:
  %vtable = load ptr, ptr %this, align 8
  %vfn = getelementptr inbounds i8, ptr %vtable, i64 16
  %0 = load ptr, ptr %vfn, align 8
  %call = tail call noundef i64 %0(ptr noundef nonnull align 8 dereferenceable(144) %this)
  %data_.i.i = getelementptr inbounds i8, ptr %this, i64 176
  %1 = load ptr, ptr %data_.i.i, align 8
  %byte_width_.i = getelementptr inbounds i8, ptr %this, i64 144
  %2 = load i32, ptr %byte_width_.i, align 8
  %conv.i = sext i32 %2 to i64
  %mul.i = mul nsw i64 %call, %conv.i
  %add.ptr.i = getelementptr inbounds i8, ptr %1, i64 %mul.i
  store i64 %value.coerce0, ptr %add.ptr.i, align 1
  %value.sroa.2.0.add.ptr.i.sroa_idx = getelementptr inbounds i8, ptr %add.ptr.i, i64 8
  store i64 %value.coerce1, ptr %value.sroa.2.0.add.ptr.i.sroa_idx, align 1
  %size_.i = getelementptr inbounds i8, ptr %this, i64 192
  %3 = load i64, ptr %size_.i, align 8
  %add.i = add nsw i64 %3, 16
  store i64 %add.i, ptr %size_.i, align 8
  %data_.i.i.i.i = getelementptr inbounds i8, ptr %this, i64 48
  %4 = load ptr, ptr %data_.i.i.i.i, align 8
  %bit_length_.i.i = getelementptr inbounds i8, ptr %this, i64 80
  %5 = load i64, ptr %bit_length_.i.i, align 8
  %div.i.i.i = sdiv i64 %5, 8
  %arrayidx.i.i.i = getelementptr inbounds i8, ptr %4, i64 %div.i.i.i
  %6 = load i8, ptr %arrayidx.i.i.i, align 1
  %rem.i.i.i = srem i64 %5, 8
  %arrayidx5.i.i.i = getelementptr inbounds [8 x i8], ptr @_ZN5arrow8bit_utilL8kBitmaskE, i64 0, i64 %rem.i.i.i
  %7 = load i8, ptr %arrayidx5.i.i.i, align 1
  %xor105.i.i.i = or i8 %7, %6
  store i8 %xor105.i.i.i, ptr %arrayidx.i.i.i, align 1
  %8 = load i64, ptr %bit_length_.i.i, align 8
  %inc4.i2.i = add nsw i64 %8, 1
  store i64 %inc4.i2.i, ptr %bit_length_.i.i, align 8
  %length_3.i = getelementptr inbounds i8, ptr %this, i64 104
  %9 = load i64, ptr %length_3.i, align 8
  %inc4.i = add nsw i64 %9, 1
  store i64 %inc4.i, ptr %length_3.i, align 8
  ret void
}